                         4 .list
                         5 		***************************************************************
                         6 		**ÂêÑÁ®Æ„É¨„Ç∏„Çπ„ÇøÂÆöÁæ©
                         7 		***************************************************************
                         8 
                         9 		***************
                        10 		** „É¨„Ç∏„Çπ„ÇøÁæ§„ÅÆÂÖàÈ†≠
                        11 		***************
                        12 		.equ REGBASE,   0xFFF000          | DMAP„Çí‰ΩøÁî®Ôºé
                        13 		.equ IOBASE,    0x00d00000
                        14 
                        15 		***************
                        16 		** Ââ≤„ÇäËæº„ÅøÈñ¢‰øÇ„ÅÆ„É¨„Ç∏„Çπ„Çø
                        17 		***************
                        18 		.equ IVR,       REGBASE+0x300     |Ââ≤„ÇäËæº„Åø„Éô„ÇØ„Çø„É¨„Ç∏„Çπ„Çø
                        19 		.equ IMR,       REGBASE+0x304     |Ââ≤„ÇäËæº„Åø„Éû„Çπ„ÇØ„É¨„Ç∏„Çπ„Çø
                        20 		.equ ISR,       REGBASE+0x30c     |Ââ≤„ÇäËæº„Åø„Çπ„ÉÜ„Éº„Çø„Çπ„É¨„Ç∏„Çπ„Çø
                        21 		.equ IPR,       REGBASE+0x310     |Ââ≤„ÇäËæº„Åø„Éö„É≥„Éá„Ç£„É≥„Ç∞„É¨„Ç∏„Çπ„Çø
                        22 
                        23 		***************
                        24 		** „Çø„Ç§„ÉûÈñ¢‰øÇ„ÅÆ„É¨„Ç∏„Çπ„Çø
                        25 		***************
                        26 		.equ TCTL1,     REGBASE+0x600     |„Çø„Ç§„ÉûÔºë„Ç≥„É≥„Éà„É≠„Éº„É´„É¨„Ç∏„Çπ„Çø
                        27 		.equ TPRER1,    REGBASE+0x602     |„Çø„Ç§„ÉûÔºë„Éó„É™„Çπ„Ç±„Éº„É©„É¨„Ç∏„Çπ„Çø
                        28 		.equ TCMP1,     REGBASE+0x604     |„Çø„Ç§„ÉûÔºë„Ç≥„É≥„Éö„Ç¢„É¨„Ç∏„Çπ„Çø
                        29 		.equ TCN1,      REGBASE+0x608     |„Çø„Ç§„ÉûÔºë„Ç´„Ç¶„É≥„Çø„É¨„Ç∏„Çπ„Çø
                        30 		.equ TSTAT1,    REGBASE+0x60a     |„Çø„Ç§„ÉûÔºë„Çπ„ÉÜ„Éº„Çø„Çπ„É¨„Ç∏„Çπ„Çø
                        31 
                        32 		***************
                        33 		** UART1ÔºàÈÄÅÂèó‰ø°ÔºâÈñ¢‰øÇ„ÅÆ„É¨„Ç∏„Çπ„Çø
                        34 		***************
                        35 		.equ USTCNT1,   REGBASE+0x900     | UART1„Çπ„ÉÜ„Éº„Çø„Çπ/„Ç≥„É≥„Éà„É≠„Éº„É´„É¨„Ç∏„Çπ„Çø
                        36 		.equ UBAUD1,    REGBASE+0x902     | UART1„Éú„Éº„Ç≥„É≥„Éà„É≠„Éº„É´„É¨„Ç∏„Çπ„Çø
                        37 		.equ URX1,      REGBASE+0x904     | UART1Âèó‰ø°„É¨„Ç∏„Çπ„Çø
                        38 		.equ UTX1,      REGBASE+0x906     | UART1ÈÄÅ‰ø°„É¨„Ç∏„Çπ„Çø
                        39 
                        40 		***************
                        41 		** LED
                        42 		***************
                        43 		.equ LED7,      IOBASE+0x000002f  |„Éú„Éº„ÉâÊê≠Ëºâ„ÅÆLEDÁî®„É¨„Ç∏„Çπ„Çø
                        44 		.equ LED6,      IOBASE+0x000002d  |‰ΩøÁî®Ê≥ï„Å´„Å§„ÅÑ„Å¶„ÅØ‰ªòÈå≤A.4.3.1
                        45 		.equ LED5,      IOBASE+0x000002b
                        46 		.equ LED4,      IOBASE+0x0000029
                        47 		.equ LED3,      IOBASE+0x000003f
                        48 		.equ LED2,      IOBASE+0x000003d
                        49 		.equ LED1,      IOBASE+0x000003b
                        50 		.equ LED0,      IOBASE+0x0000039
                        51 
                        52 		***************************************************************
                        53 		** „Çπ„Çø„ÉÉ„ÇØÈ†òÂüü„ÅÆÁ¢∫‰øù
                        54 		***************************************************************
                        55 		.section .bss
                        56 		.even
                        57 SYS_STK:
0009ec 0000 0000        58 		.ds.b   0x4000  |„Ç∑„Çπ„ÉÜ„É†„Çπ„Çø„ÉÉ„ÇØÈ†òÂüü
       0000 0000        58 
       0000 0000        58 
       0000 0000        58 
       0000 0000        58 
                        59 		.even
                        60 SYS_STK_TOP:            |„Ç∑„Çπ„ÉÜ„É†„Çπ„Çø„ÉÉ„ÇØÈ†òÂüü„ÅÆÊúÄÂæåÂ∞æ
                        61 
                        62 		***************************************************************
                        63 		** ÂàùÊúüÂåñ
                        64 		** ÂÜÖÈÉ®„Éá„Éê„Ç§„Çπ„É¨„Ç∏„Çπ„Çø„Å´„ÅØÁâπÂÆö„ÅÆÂÄ§„ÅåË®≠ÂÆö„Åï„Çå„Å¶„ÅÑ„ÇãÔºé
                        65 		** „Åù„ÅÆÁêÜÁî±„ÇíÁü•„Çã„Å´„ÅØÔºå‰ªòÈå≤B„Å´„ÅÇ„ÇãÂêÑ„É¨„Ç∏„Çπ„Çø„ÅÆ‰ªïÊßò„ÇíÂèÇÁÖß„Åô„Çã„Åì„Å®Ôºé
                        66 		***************************************************************
                        67 
                        68 
                        69 .section .data
                        70 .even
0005b0 3031 3233        71 	TDATA1: .ascii "0123456789ABCDEF"
       3435 3637        71 
       3839 4142        71 
       4344 4546        71 
0005c0 6B6C 6D6E        72 	TDATA2: .ascii "klmnopqrstuvwxyz"
       6F70 7172        72 
       7374 7576        72 
       7778 797A        72 
                        73 .even
                        74 
                        75 		
                        76 
                        77 .section .text
                        78 		.even
                        79 boot:
                        80 		* „Çπ„Éº„Éë„Éº„Éê„Ç§„Ç∂&ÂêÑÁ®ÆË®≠ÂÆö„ÇíË°å„Å£„Å¶„ÅÑ„ÇãÊúÄ‰∏≠„ÅÆÂâ≤ËæºÁ¶ÅÊ≠¢
000400 46FC 2700        81 		move.w #0x2700,%SR
000404 4FF9 0000        82 		lea.l  SYS_STK_TOP, %SP | Set SSP
       0000             82 
                        83 
                        84 		****************
                        85 		**Ââ≤„ÇäËæº„Åø„Ç≥„É≥„Éà„É≠„Éº„É©„ÅÆÂàùÊúüÂåñ
                        86 		****************
00040a 13FC 0040        87 		move.b #0x40, IVR       |„É¶„Éº„Ç∂Ââ≤„ÇäËæº„Åø„Éô„ÇØ„ÇøÁï™Âè∑„Çí| 0x40+level„Å´Ë®≠ÂÆöÔºé
       00FF F300        87 
000412 23FC 00FF        88 		move.l #0x00ffffff,IMR  |ÂÖ®Ââ≤„ÇäËæº„Åø„Éû„Çπ„ÇØ /* STEP2.3 */
       FFFF 00FF        88 
       F304             88 
                        89 
                        90 		****************
                        91 		** ÈÄÅÂèó‰ø°(UART1)Èñ¢‰øÇ„ÅÆÂàùÊúüÂåñ(Ââ≤„ÇäËæº„Åø„É¨„Éô„É´„ÅØ4„Å´Âõ∫ÂÆö„Åï„Çå„Å¶„ÅÑ„Çã)
                        92 		****************
00041c 33FC 0000        93 		move.w #0x0000, USTCNT1 |„É™„Çª„ÉÉ„Éà
       00FF F900        93 
000424 33FC E100        94 		move.w #0xe100, USTCNT1 |ÈÄÅÂèó‰ø°ÂèØËÉΩ,„Éë„É™„ÉÜ„Ç£„Å™„Åó, 1 stop, 8 bit,|ÈÄÅÂèóÂâ≤„ÇäËæº„ÅøÁ¶Å
       00FF F900        94 
00042c 33FC 0038        95 		move.w #0x0038, UBAUD1  |baud rate = 230400 bps
       00FF F902        95 
                        96 
                        97 		****************
                        98 		** „Çø„Ç§„ÉûÈñ¢‰øÇ„ÅÆÂàùÊúüÂåñ(Ââ≤„ÇäËæº„Åø„É¨„Éô„É´„ÅØ6„Å´Âõ∫ÂÆö„Åï„Çå„Å¶„ÅÑ„Çã)
                        99 		*****************
000434 33FC 0004       100 		move.w #0x0004, TCTL1   | restart,Ââ≤„ÇäËæº„Åø‰∏çÂèØ,|„Ç∑„Çπ„ÉÜ„É†„ÇØ„É≠„ÉÉ„ÇØ„ÅÆ1/16„ÇíÂçò‰Ωç„Å®
       00FF F600       100 
                       101 
                       102 		***************************************************************
                       103 		** STEP2„ÅÆÂá¶ÁêÜ
                       104 		***************************************************************
                       105 		/* ÂàùÊúüÂåñÂá¶ÁêÜ„Çí„É°„Ç§„É≥„É´„Éº„ÉÅ„É≥„Åã„Çâ„Åì„Å°„Çâ„Å∏ÁßªÂãï */
                       106 		*lea.l uart1_interrupt, %a0
                       107 		*move.l %a0, 0x110 /* STEP2.1 level 4, (64+4)*4 Ââ≤„ÇäËæº„ÅøÂá¶ÁêÜ„É´„Éº„ÉÅ„É≥„ÅÆÈñãÂßã„Ç¢„Éâ„É¨„
00043c 21FC 0000       108 		move.l #uart1_interrupt, 0x110
       0000 0110       108 
000444 33FC E100       109 		move.w #0xe100, USTCNT1 |ÈÄÅÂèó‰ø°Ââ≤„ÇäËæº„Åø„Éû„Çπ„ÇØ
       00FF F900       109 
00044c 23FC 00FF       110 		move.l #0x00ff3ffb,IMR  |UART1Ë®±ÂèØ
       3FFB 00FF       110 
       F304            110 
000456 46FC 2700       111 		move.w #0x2700, %SR    /* Ëµ∞Ë°å„É¨„Éô„É´7 */
                       112 		
                       113 
00045a 6000 0002       114 		bra MAIN
                       115 
                       116 		***************************************************************
                       117 		** ÁèæÊÆµÈöé„Åß„ÅÆÂàùÊúüÂåñ„É´„Éº„ÉÅ„É≥„ÅÆÊ≠£Â∏∏Âãï‰Ωú„ÇíÁ¢∫Ë™ç„Åô„Çã„Åü„ÇÅÔºåÊúÄÂæå„Å´‚Äôa‚Äô„Çí
                       118 		** ÈÄÅ‰ø°„É¨„Ç∏„Çπ„ÇøUTX1„Å´Êõ∏„ÅçËæº„ÇÄÔºé'a'„ÅåÂá∫Âäõ„Åï„Çå„Çå„Å∞ÔºåOK.
                       119 		***************************************************************
                       120 		.section .text
                       121 		.even
                       122 
                       123 
                       124 
                       125 
                       126 	
                       127 MAIN:
00045e 4EB9 0000       128 		jsr Init_Q
       0000            128 
000464 13FC 0031       129 		move.b #'1', LED7
       00D0 002F       129 
00046c 33FC E108       130 		move.w #0xe108,USTCNT1
       00FF F900       130 
000474 46FC 2000       131 		move.w #0x2000, %SR    /* Ëµ∞Ë°å„É¨„Éô„É´0 */
                       132 
                       133 
                       134 PS_TEST1:
                       135 		/* jsr PUTSTRING(0, #TDATA1, 16)*/
000478 7200            136 		move.l	#0x00, %d1
00047a 243C 0000       137 		move.l	#TDATA1, %d2
       0000            137 
000480 760F            138 		move.l	#0x0f, %d3
000482 4EBA 00D4       139 		jsr PUTSTRING
                       140 		
                       141 	
000486 13FC 0032       142 		move.b #'2', LED6
       00D0 002D       142 
00048e 283C 0000       143 		move.l	#0x000fff, %d4
       0FFF            143 
                       144 	
                       145 		
                       146 LOOP:
000494 5384            147 		subq.l #1,%d4
000496 6700 000E       148 		beq PS_TEST2
00049a 13FC 0035       149 		move.b #'5', LED3
       00D0 003F       149 
                       150 		
0004a2 6000 FFF0       151 		bra LOOP
                       152 
                       153 PS_TEST2:
0004a6 13FC 0036       154 		move.b #'6', LED2
       00D0 003D       154 
0004ae 7200            155 		move.l	#0x00, %d1
0004b0 243C 0000       156 		move.l	#TDATA2, %d2
       0000            156 
0004b6 760F            157 		move.l	#0x0f, %d3
0004b8 4EBA 009E       158 		jsr PUTSTRING
0004bc 6000 FFE8       159 		bra PS_TEST2
                       160 
                       161 /*‰ª•‰∏ã„ÉÜ„Çπ„Éà*/
                       162 TEST_READY:
                       163 		*movem.l %d1-%d5, -(%sp)
                       164 	
0004c0 383C 0010       165 		move.w #16, %d4
0004c4 3A3C 0010       166 		move.w #16, %d5
0004c8 123C 0061       167 		move.b #0x61, %d1
0004cc 6000 0008       168 		bra TEST_LOOP
                       169 
                       170 TEST_LOOP2:
                       171 
0004d0 5241            172 		addq #1, %d1
0004d2 383C 0010       173 		move.w #16, %d4
                       174 
                       175 TEST_LOOP:
0004d6 7001            176 		moveq #1, %d0
                       177 		*move.w #0x1000, %d0
0004d8 4EB9 0000       178 		jsr INQ
       0000            178 
                       179 		*jsr OUTQ
0004de 5344            180 		subq #1, %d4
0004e0 6600 FFF4       181 		bne TEST_LOOP
0004e4 5345            182 		subq #1, %d5
0004e6 6700 0006       183 		beq TEST_END
0004ea 6000 FFE4       184 		bra TEST_LOOP2
                       185 
                       186 TEST_END:
                       187 		*movem.l (%sp)+, %d1-%d5
0004ee 4E75            188 		rts
                       189 /*‰ª•‰∏ä„ÉÜ„Çπ„Éà*/
                       190 
                       191 uart1_interrupt:
0004f0 13FC 0033       192 		move.b #'3', LED5
       00D0 002B       192 
0004f8 48E7 8000       193 		movem.l %d0, -(%sp)
                       194 
                       195 		*move.b #'a', %d0 /* URX1„ÅÆ‰∏ã‰Ωç8„Éì„ÉÉ„Éà„ÅÆ„Éá„Éº„Çø„ÇíËª¢ÈÄÅ */
                       196 		*addi.w #0x0800, %d0 /* Âç≥ÂÄ§„Çí„É¨„Ç∏„Çπ„Çød0„Å´Âä†ÁÆó */
                       197 		*move.w %d0, UTX1 /* 16„Éì„ÉÉ„Éà„ÅÆ„Éá„Éº„Çø„ÇíUTX1„Å´Ëª¢ÈÄÅ */
                       198 
                       199 
0004fc 3039 00FF       200 		move.w UTX1, %d0	/*step4:UTX1„ÅÆ„Ç≥„Éî„Éº*/
       F906            200 
                       201 		
000502 123C 0000       202 		move.b #0, %d1	/*ch„ÅÆÈÅ∏Êäû*/
                       203 
000506 0C40 8000       204 		cmp #0x8000,%d0
00050a 6400 0008       205 		bcc INTERPUT
                       206 
00050e 4CDF 0001       207 		movem.l (%sp)+, %d0
                       208 		
000512 4E73            209 		rte
                       210 
                       211 
                       212 INTERPUT:
000514 48E7 E000       213 		movem.l %d0-%d2, -(%sp)
                       214 
000518 46FC 2700       215 		move.w #0x2700, %SR	/*step4.1:Ëµ∞Ë°å„É¨„Éô„É´7*/
                       216 
00051c 0C01 0000       217 		cmp.b #0x0, %d1		/*step4.2:ch!=0„ÅßÂàÜÂ≤ê*/
                       218 
000520 6600 0020       219 		bne INTERPUT_END
                       220 
000524 103C 0001       221 		move.b #1, %d0
                       222 
000528 4EB9 0000       223 		jsr OUTQ		/*step4.3:OUTQ„ÅÆÂÆüË°å*/
       0000            223 
                       224 
00052e 0C40 0000       225 		cmp.w #0, %d0		/*step4.4:Êàª„ÇäÂÄ§„Åå0„ÅßÂàÜÂ≤ê*/
                       226 
000532 6700 0018       227 		beq INTERPUT_MASK
                       228 
000536 1401            229 		move.b %d1, %d2
                       230 
000538 0642 0800       231 		addi.w #0x0800, %d2
                       232 
                       233 
00053c 33C2 00FF       234 		move.w %d2, UTX1	/*step4.5:„Éò„ÉÉ„ÉÄ‰ªò‰∏é*/
       F906            234 
                       235 
                       236 
                       237 INTERPUT_END:
000542 4CDF 0007       238 		movem.l (%sp)+, %d0-%d2
                       239 
000546 4CDF 0001       240 		movem.l (%sp)+, %d0
                       241 
00054a 4E73            242 		rte
                       243 
                       244 INTERPUT_MASK:
00054c 33FC E100       245 		move.w #0xe100, USTCNT1	/*step4.4:ÈÄÅ‰ø°Ââ≤„ÇäËæº„Åø„ÅÆ„Éû„Çπ„ÇØ*/
       00FF F900       245 
                       246 		/* ‚Üë ‰ΩïÊïÖ„Åã„Ç≥„É°„É≥„Éà„Ç¢„Ç¶„Éà„Åï„Çå„Å¶„ÅÑ„Åü„ÅÆ„Åß„ÄÅ‰øÆÊ≠£ */
                       247 
000554 6000 FFEC       248 		bra INTERPUT_END
                       249 
                       250 *************************************************************
                       251 **PUTSTRING
                       252 **ÂÖ•Âäõ
                       253 **d1:„ÉÅ„É£„Éç„É´
                       254 **d2:„Éá„Éº„ÇøË™≠„ÅøËæº„ÅøÂÖà„ÅÆÂÖàÈ†≠„Ç¢„Éâ„É¨„Çπ
                       255 **d3:ÈÄÅ‰ø°„Åô„Çã„Éá„Éº„ÇøÊï∞size
                       256 **Êàª„ÇäÂÄ§
                       257 **d0:ÂÆüÈöõ„Å´ÈÄÅ‰ø°„Åó„Åü„Éá„Éº„ÇøÊï∞
                       258 *************************************************************
                       259 PUTSTRING:
000558 48E7 7FFE       260 		movem.l %a0-%a6/%d1-%d7, -(%SP)
                       261 
00055c 0C01 0000       262 		cmp.b #0x00, %d1		/*ch!=0„ÅßÂàÜÂ≤ê*/
000560 6600 003C       263 		bne PUTSTRING_END
                       264 		/* rv: „Éê„Ç§„Éà„Çµ„Ç§„Ç∫„ÅÆÊØîËºÉ„ÄÇÔºê„Åß„ÅØ„Å™„ÅÑ„Å®„Åç„Å´ÁµÇ‰∫Ü„Åô„Çã*/
                       265 
000564 383C 0000       266 		move.w #0x0000,%d4 		/*%d4=sz:ÈÄÅ‰ø°„Åó„Åü„Éá„Éº„ÇøÊï∞„ÇíÊ†ºÁ¥ç*/
                       267 		/* rv: „Éá„Éº„ÇøÊï∞(sz)„ÅÆÂàùÊúüÂåñ*/
                       268 
000568 2242            269 		move.l %d2,%a1 		/*%d5:„Éá„Éº„Çø„ÅÆË™≠„ÅøËæº„ÅøÂÖà„Ç¢„Éâ„É¨„Çπ/
                       270 		/* rv: Ë™≠„ÅøËæº„ÅøÂÖà„ÅÆÂÖàÈ†≠„Ç¢„Éâ„É¨„Çπ„Çía1„Å´Ê†ºÁ¥ç„Åô„Çã*/	
                       271 
00056a 0C43 0000       272 		cmp.w #0x0000,%d3		/*size=0„ÅßÂàÜÂ≤ê*/
00056e 6700 002E       273 		beq PUTSTRING_END
                       274 		/* rv: d3(size)„Åå0„Å™„Çâ„Å∞ÁµÇ‰∫Ü„Åô„Çã*/
                       275 
                       276 
                       277 LOOP_STEP5:
000572 B644            278 		cmp.w %d4,%d3		/*sz=size„ÅßÂàÜÂ≤ê*/
000574 6700 001C       279 		beq PUTSTRING_MASK
                       280 		/* d3 „Å® d4 size = sz „Å™„Çâ„Å∞„Éû„Çπ„ÇØ„Å∏ÁßªÂãï*/
                       281 
000578 103C 0001       282 		move.b #0x01,%d0 		/*„Ç≠„É•„ÉºÁï™Âè∑„ÅÆË®≠ÂÆö*/
00057c 1219            283 		move.b (%a1)+,%d1	/*„Éá„Éº„Çø„ÇíINQ„ÅÆÂÖ•Âäõd1„Å´Ê†ºÁ¥ç*/
                       284 		/* rv: ÂÖàÈ†≠„Ç¢„Éâ„É¨„Çπ„Åã„ÇâÈ†Ü„Å´Ê†ºÁ¥ç„Åô„Çã*/
                       285 
00057e 4EB9 0000       286 		jsr INQ
       0000            286 
                       287 
000584 0C00 0000       288 		cmp.b #0x00,%d0		/*ÊàêÂäüorÂ§±ÊïóÂà§ÂÆö*/
000588 6700 0008       289 		beq PUTSTRING_MASK
                       290 		/*rv : Â§±Êïó„Å™„Çâ„Å∞„Éû„Çπ„ÇØ„Å∏ÁßªÂãï„Åô„Çã*/
                       291 
00058c 5244            292 		addq.w #0x01,%d4		/*sz++*/
00058e 6000 FFE2       293 		bra LOOP_STEP5
                       294 
                       295 PUTSTRING_MASK:
                       296 
000592 33FC E10C       297 		move.w #0xe10c, USTCNT1	/*ÈÄÅ‰ø°Ââ≤„ÇäËæº„ÅøË®±ÂèØ*/
       00FF F900       297 
00059a 6000 0002       298 		bra PUTSTRING_END
                       299 
                       300 PUTSTRING_END:
00059e 3004            301 		move.w %d4,%d0		/*Êàª„ÇäÂÄ§d0„Å´ÂÆüÈöõ„Å´ÈÄÅ‰ø°„Åó„Åü„Éá„Éº„ÇøÊï∞„ÇíÊ†ºÁ¥ç*/
0005a0 4CDF 7FFE       302 		movem.l (%SP)+, %a0-%a6/%d1-%d7
                       303 
                       304 		*rte 			/*?*/
                       305 		/* bus errorÂá∫„Åü„ÅÆ„ÅßÂ§âÊõ¥„Åó„Åü*/
                       306 
                       307 		***
0005a4 13FC 0034       308 		move.b #'4', LED4
       00D0 0029       308 
                       309 		***
0005ac 4E75            310 		rts
                       311 
                       312 ******************************************************************************:
                       313 
                       314 ******
                       315 ******‰ª•ÈôçQUEUE
                       316 ******
                       317 
                       318 .section .data
                       319 .equ IN_COUNT, 257
                       320 .equ OUT_COUNT, 257
                       321 .equ queue_number, 1
                       322 .equ OFFSET_1, 0x100
                       323 .equ END_0, 0xff
                       324 .equ END_1, 0x1ff
0005d0 0000 0000       325 top: .ds.b 0x200
       0000 0000       325 
       0000 0000       325 
       0000 0000       325 
       0000 0000       325 
0007d0 0000 0000       326 bottom: .ds.l 1
0007d4 0000 0000       327 in: .ds.l 1
0007d8 0000 0000       328 in_0: .ds.l 1
0007dc 0000 0000       329 in_1: .ds.l 1
0007e0 0000 0000       330 out: .ds.l 1
0007e4 0000 0000       331 out_0: .ds.l 1
0007e8 0000 0000       332 out_1: .ds.l 1
0007ec 0000 0000       333 s: .ds.l 1
0007f0 0000 0000       334 s0: .ds.l 1
0007f4 0000 0000       335 s1: .ds.l 1
0007f8 0000 0000       336 START_LABEL: .ds.l 1
                       337 
                       338 /* ÂàùÊúüÂåñ*/
                       339 Init_Q:
0007fc 48E7 003E       340 movem.l %a2-%a6, -(%sp) /* ÂøúÊÄ•Âá¶ÁΩÆ*/
000800 45FA FDCE       341 lea.l top, %a2
000804 23CA 0000       342 move.l %a2, in_0
       0000            342 
00080a 23CA 0000       343 move.l %a2, out_0
       0000            343 
000810 47EA 0100       344 lea.l OFFSET_1(%a2), %a3
000814 23CB 0000       345 move.l %a3, in_1
       0000            345 
00081a 23CB 0000       346 move.l %a3, out_1
       0000            346 
000820 49FA FFCA       347 lea.l s, %a4
000824 4BFA FFCA       348 lea.l s0, %a5
000828 4DFA FFCA       349 lea.l s1, %a6
00082c 28BC 0000       350 move.l #0,(%a4)
       0000            350 
000832 2ABC 0000       351 move.l #0,(%a5)
       0000            351 
000838 2CBC 0000       352 move.l #0,(%a6)
       0000            352 
00083e 4CDF 7C00       353 movem.l (%sp)+, %a2-%a6 /* ÂøúÊÄ•Âá¶ÁΩÆ*/
000842 4E75            354 rts
                       355 
                       356 *****************************************************************
                       357 **d0:„Ç≠„É•„Éº„ÅÆÈÅ∏Êäû
                       358 **d1:Êõ∏„ÅçËæº„ÇÄ„Éá„Éº„Çø
                       359 **d1:Ëøî„ÇäÂÄ§„ÄÅÊàêÂäüorÂ§±Êïó
                       360 *****************************************************************
                       361 INQ:
000844 48E7 1000       362 movem.l %d3, -(%sp)
000848 40C3            363 move.w %SR, %d3
00084a 46FC 2700       364 move.w #0x2700, %SR
00084e 4EBA 000E       365 jsr SELECT_QUEUE
000852 4EBA 008C       366 jsr PUT_BUF
000856 46C3            367 move.w %d3, %SR
000858 4CDF 0008       368 movem.l (%sp)+, %d3
00085c 4E75            369 rts
                       370 
                       371 SELECT_QUEUE:
00085e 0C00 0000       372 cmp.b #0, %d0
000862 6700 000C       373 beq SET_0
000866 0C00 0001       374 cmp.b #1, %d0
00086a 6700 003A       375 beq SET_1
00086e 4E75            376 rts
                       377 
                       378 SET_0:
000870 48E7 0030       379 movem.l %a2-%a3, -(%sp)
000874 23FA FF62       380 move.l in_0, in
       0000 0000       380 
00087c 23FA FF66       381 move.l out_0, out
       0000 0000       381 
                       382 
000884 45FA FD4A       383 lea.l top, %a2
000888 23CA 0000       384 move.l %a2, START_LABEL
       0000            384 
00088e 47EA 00FF       385 lea.l END_0(%a2), %a3
000892 23CB 0000       386 move.l %a3, bottom
       0000            386 
000898 23FA FF56       387 move.l s0,s
       0000 0000       387 
0008a0 4CDF 0C00       388 movem.l (%sp)+, %a2-%a3
0008a4 4E75            389 rts
                       390 
                       391 SET_1:
0008a6 48E7 0030       392 movem.l %a2-%a3, -(%sp)
0008aa 23FA FF30       393 move.l in_1, in
       0000 0000       393 
0008b2 23FA FF34       394 move.l out_1, out
       0000 0000       394 
                       395 
0008ba 45FA FD14       396 lea.l top, %a2
0008be 47EA 0100       397 lea.l OFFSET_1(%a2), %a3
0008c2 23CB 0000       398 move.l %a3, START_LABEL
       0000            398 
0008c8 47EA 01FF       399 lea.l END_1(%a2), %a3
0008cc 23CB 0000       400 move.l %a3, bottom
       0000            400 
0008d2 23FA FF20       401 move.l s1,s
       0000 0000       401 
0008da 4CDF 0C00       402 movem.l (%sp)+, %a2-%a3
0008de 4E75            403 rts
                       404 
                       405 PUT_BUF:
0008e0 48E7 407E       406 movem.l %a1-%a6/%d1, -(%sp)
                       407 
0008e4 243A FF06       408 move.l s,%d2
0008e8 0C82 0000       409 cmp.l #0x100,%d2
       0100            409 
0008ee 6700 0038       410 beq PUT_FAIL 
                       411 
0008f2 49FA FEF8       412 lea.l s,%a4
0008f6 5294            413 addq.l #1,(%a4)
0008f8 143C 0001       414 move.b #1,%d2 /*ÊàêÂäü*/
0008fc 227A FED6       415 movea.l in, %a1
000900 12C1            416 move.b %d1, (%a1)+  
                       417 
000902 267A FECC       418 move.l bottom, %a3
000906 B3CB            419 cmpa.l %a3, %a1
000908 6300 0008       420 bls PUT_BUF_STEP1
00090c 247A FEEA       421 move.l START_LABEL, %a2
000910 224A            422 movea.l %a2, %a1
                       423 
                       424 PUT_BUF_STEP1:
000912 23C9 0000       425 move.l %a1, in
       0000            425 
000918 B3FA FEC6       426 cmpa.l out, %a1
00091c 6600 0002       427 bne PUT_BUF_STEP2
                       428 
                       429 PUT_BUF_STEP2:
000920 4EBA 0014       430 jsr UPDATE
000924 6000 000A       431 bra PUT_BUF_Finish
                       432 
                       433 PUT_FAIL:
000928 343C 0000       434 move.w #0,%d2 /*Â§±Êïó*/
00092c 4EBA 0008       435 jsr UPDATE
                       436 
                       437 PUT_BUF_Finish:
000930 4CDF 7E02       438 movem.l (%sp)+, %a1-%a6/%d1
000934 4E75            439 rts
                       440 
                       441 UPDATE:
000936 0C00 0000       442 cmp.b #0, %d0
00093a 6700 000C       443 beq QUEUE_0
00093e 0C00 0001       444 cmp.b #1, %d0
000942 6700 001E       445 beq QUEUE_1
000946 4E75            446 rts
                       447 
                       448 QUEUE_0:
000948 23C9 0000       449 move.l %a1, in_0
       0000            449 
00094e 23FA FE90       450 move.l out, out_0
       0000 0000       450 
000956 23FA FE94       451 move.l s,s0
       0000 0000       451 
00095e 3002            452 move.w %d2,%d0 /*ÊàêÂäüorÂ§±Êïó„ÅÆËøî„ÇäÂÄ§*/
                       453 
000960 4E75            454 rts
                       455 QUEUE_1:
000962 23C9 0000       456 move.l %a1, in_1
       0000            456 
000968 23FA FE76       457 move.l out, out_1
       0000 0000       457 
000970 23FA FE7A       458 move.l s,s1
       0000 0000       458 
000978 3002            459 move.w %d2,%d0 /*ÊàêÂäüorÂ§±Êïó„ÅÆËøî„ÇäÂÄ§*/
00097a 4E75            460 rts
                       461 
                       462 ********************************************
                       463 **d0:„Ç≠„É•„Éº„ÅÆÈÅ∏Êäû
                       464 **d1:Êàª„ÇäÂÄ§„ÄÅÂèñ„ÇäÂá∫„Åó„Åü„Éá„Éº„Çø
                       465 ********************************************
                       466 OUTQ:
                       467 *move.w #0x0800+'a', UTX1
00097c 48E7 1000       468 movem.l %d3, -(%sp)
000980 40C3            469 move.w %SR, %d3
000982 46FC 2700       470 move.w #0x2700, %SR
000986 4EBA FED6       471 jsr SELECT_QUEUE
00098a 4EBA 000A       472 jsr GET_BUF
00098e 46C3            473 move.w %d3, %SR
000990 4CDF 0008       474 movem.l (%sp)+, %d3
000994 4E75            475 rts
                       476 
                       477 GET_BUF:
000996 48E7 007E       478 movem.l %a1-%a6, -(%sp)
                       479 
00099a 243A FE50       480 move.l s,%d2
00099e 0C82 0000       481 cmp.l #0x00,%d2
       0000            481 
0009a4 6700 0038       482 beq GET_FAIL
                       483 
0009a8 143C 0001       484 move.b #1,%d2 /*ÊàêÂäü*/
0009ac 49FA FE3E       485 lea.l s,%a4
0009b0 5394            486 subq.l #1,(%a4)
0009b2 227A FE2C       487 movea.l out, %a1
0009b6 1219            488 move.b (%a1)+, %d1     
0009b8 267A FE16       489 move.l bottom, %a3
0009bc B3CB            490 cmpa.l %a3, %a1
0009be 6300 0008       491 bls GET_BUF_STEP1
0009c2 247A FE34       492 move.l START_LABEL, %a2
0009c6 224A            493 movea.l %a2, %a1
                       494 
                       495 GET_BUF_STEP1:
0009c8 23C9 0000       496 move.l %a1, out
       0000            496 
0009ce B3FA FE04       497 cmpa.l in, %a1
0009d2 6600 0002       498 bne GET_BUF_STEP2
                       499 
                       500 GET_BUF_STEP2:
0009d6 4EBA FF5E       501 jsr UPDATE
0009da 6000 000A       502 bra GET_BUF_Finish
                       503 
                       504 GET_FAIL:
0009de 343C 0000       505 move.w #0,%d2 /*Â§±Êïó*/
0009e2 4EBA FF52       506 jsr UPDATE
                       507 *move.w #0x0800+'e', UTX1
                       508 
                       509 GET_BUF_Finish:
0009e6 4CDF 7E00       510 movem.l (%sp)+, %a1-%a6
0009ea 4E75            511 rts
                       512 
                       513 
                       514 
                       515 
                       516 
                       517 
                       518 
                       519 
                       520 
                       521 
